target datalayout = "e-m:e-p270:32:32-p271:32:32-p272:64:64-i64:64-i128:128-f80:128-n8:16:32:64-S128"
target triple = "x86_64-pc-linux-gnu"

%"class.pxrInternal_v0_24__pxrReserved__::GfMatrix4f" = type { %"class.pxrInternal_v0_24__pxrReserved__::GfMatrixData" }
%"class.pxrInternal_v0_24__pxrReserved__::GfMatrixData" = type { [16 x float] }
%"struct.std::_Vector_base.12" = type { %"struct.std::_Vector_base<float, std::allocator<float>>::_Vector_impl" }
%"struct.std::_Vector_base<float, std::allocator<float>>::_Vector_impl" = type { %"struct.std::_Vector_base<float, std::allocator<float>>::_Vector_impl_data" }
%"struct.std::_Vector_base<float, std::allocator<float>>::_Vector_impl_data" = type { ptr, ptr, ptr }

; Function Attrs: mustprogress nounwind uwtable
define linkonce_odr noundef ptr @_ZN32pxrInternal_v0_24__pxrReserved__12GfMatrixDataIfLi4ELi4EEixEi(ptr noundef nonnull align 4 dereferenceable(64) %0, i32 noundef %1) #2 comdat align 2 {
  %3 = alloca ptr, align 8
  %4 = alloca i32, align 4
  store ptr %0, ptr %3, align 8
  store i32 %1, ptr %4, align 4
  %5 = load ptr, ptr %3, align 8
  %6 = getelementptr inbounds nuw %"class.pxrInternal_v0_24__pxrReserved__::GfMatrixData", ptr %5, i32 0, i32 0
  %7 = getelementptr inbounds [16 x float], ptr %6, i64 0, i64 0
  %8 = load i32, ptr %4, align 4
  %9 = mul nsw i32 %8, 4
  %10 = sext i32 %9 to i64
  %11 = getelementptr inbounds float, ptr %7, i64 %10
  ret ptr %11
}

; Function Attrs: mustprogress uwtable
define linkonce_odr noundef nonnull align 4 dereferenceable(64) ptr @_ZN32pxrInternal_v0_24__pxrReserved__10GfMatrix4f3SetEPA4_Kf(ptr noundef nonnull align 4 dereferenceable(64) %0, ptr noundef %1) #0 comdat align 2 {
  %3 = alloca ptr, align 8
  %4 = alloca ptr, align 8
  store ptr %0, ptr %3, align 8
  store ptr %1, ptr %4, align 8
  %5 = load ptr, ptr %3, align 8
  %6 = load ptr, ptr %4, align 8
  %7 = getelementptr inbounds [4 x float], ptr %6, i64 0
  %8 = getelementptr inbounds [4 x float], ptr %7, i64 0, i64 0
  %9 = load float, ptr %8, align 4
  %10 = getelementptr inbounds nuw %"class.pxrInternal_v0_24__pxrReserved__::GfMatrix4f", ptr %5, i32 0, i32 0
  %11 = call noundef ptr @_ZN32pxrInternal_v0_24__pxrReserved__12GfMatrixDataIfLi4ELi4EEixEi(ptr noundef nonnull align 4 dereferenceable(64) %10, i32 noundef 0)
  %12 = getelementptr inbounds float, ptr %11, i64 0
  store float %9, ptr %12, align 4
  %13 = load ptr, ptr %4, align 8
  %14 = getelementptr inbounds [4 x float], ptr %13, i64 0
  %15 = getelementptr inbounds [4 x float], ptr %14, i64 0, i64 1
  %16 = load float, ptr %15, align 4
  %17 = getelementptr inbounds nuw %"class.pxrInternal_v0_24__pxrReserved__::GfMatrix4f", ptr %5, i32 0, i32 0
  %18 = call noundef ptr @_ZN32pxrInternal_v0_24__pxrReserved__12GfMatrixDataIfLi4ELi4EEixEi(ptr noundef nonnull align 4 dereferenceable(64) %17, i32 noundef 0)
  %19 = getelementptr inbounds float, ptr %18, i64 1
  store float %16, ptr %19, align 4
  %20 = load ptr, ptr %4, align 8
  %21 = getelementptr inbounds [4 x float], ptr %20, i64 0
  %22 = getelementptr inbounds [4 x float], ptr %21, i64 0, i64 2
  %23 = load float, ptr %22, align 4
  %24 = getelementptr inbounds nuw %"class.pxrInternal_v0_24__pxrReserved__::GfMatrix4f", ptr %5, i32 0, i32 0
  %25 = call noundef ptr @_ZN32pxrInternal_v0_24__pxrReserved__12GfMatrixDataIfLi4ELi4EEixEi(ptr noundef nonnull align 4 dereferenceable(64) %24, i32 noundef 0)
  %26 = getelementptr inbounds float, ptr %25, i64 2
  store float %23, ptr %26, align 4
  %27 = load ptr, ptr %4, align 8
  %28 = getelementptr inbounds [4 x float], ptr %27, i64 0
  %29 = getelementptr inbounds [4 x float], ptr %28, i64 0, i64 3
  %30 = load float, ptr %29, align 4
  %31 = getelementptr inbounds nuw %"class.pxrInternal_v0_24__pxrReserved__::GfMatrix4f", ptr %5, i32 0, i32 0
  %32 = call noundef ptr @_ZN32pxrInternal_v0_24__pxrReserved__12GfMatrixDataIfLi4ELi4EEixEi(ptr noundef nonnull align 4 dereferenceable(64) %31, i32 noundef 0)
  %33 = getelementptr inbounds float, ptr %32, i64 3
  store float %30, ptr %33, align 4
  %34 = load ptr, ptr %4, align 8
  %35 = getelementptr inbounds [4 x float], ptr %34, i64 1
  %36 = getelementptr inbounds [4 x float], ptr %35, i64 0, i64 0
  %37 = load float, ptr %36, align 4
  %38 = getelementptr inbounds nuw %"class.pxrInternal_v0_24__pxrReserved__::GfMatrix4f", ptr %5, i32 0, i32 0
  %39 = call noundef ptr @_ZN32pxrInternal_v0_24__pxrReserved__12GfMatrixDataIfLi4ELi4EEixEi(ptr noundef nonnull align 4 dereferenceable(64) %38, i32 noundef 1)
  %40 = getelementptr inbounds float, ptr %39, i64 0
  store float %37, ptr %40, align 4
  %41 = load ptr, ptr %4, align 8
  %42 = getelementptr inbounds [4 x float], ptr %41, i64 1
  %43 = getelementptr inbounds [4 x float], ptr %42, i64 0, i64 1
  %44 = load float, ptr %43, align 4
  %45 = getelementptr inbounds nuw %"class.pxrInternal_v0_24__pxrReserved__::GfMatrix4f", ptr %5, i32 0, i32 0
  %46 = call noundef ptr @_ZN32pxrInternal_v0_24__pxrReserved__12GfMatrixDataIfLi4ELi4EEixEi(ptr noundef nonnull align 4 dereferenceable(64) %45, i32 noundef 1)
  %47 = getelementptr inbounds float, ptr %46, i64 1
  store float %44, ptr %47, align 4
  %48 = load ptr, ptr %4, align 8
  %49 = getelementptr inbounds [4 x float], ptr %48, i64 1
  %50 = getelementptr inbounds [4 x float], ptr %49, i64 0, i64 2
  %51 = load float, ptr %50, align 4
  %52 = getelementptr inbounds nuw %"class.pxrInternal_v0_24__pxrReserved__::GfMatrix4f", ptr %5, i32 0, i32 0
  %53 = call noundef ptr @_ZN32pxrInternal_v0_24__pxrReserved__12GfMatrixDataIfLi4ELi4EEixEi(ptr noundef nonnull align 4 dereferenceable(64) %52, i32 noundef 1)
  %54 = getelementptr inbounds float, ptr %53, i64 2
  store float %51, ptr %54, align 4
  %55 = load ptr, ptr %4, align 8
  %56 = getelementptr inbounds [4 x float], ptr %55, i64 1
  %57 = getelementptr inbounds [4 x float], ptr %56, i64 0, i64 3
  %58 = load float, ptr %57, align 4
  %59 = getelementptr inbounds nuw %"class.pxrInternal_v0_24__pxrReserved__::GfMatrix4f", ptr %5, i32 0, i32 0
  %60 = call noundef ptr @_ZN32pxrInternal_v0_24__pxrReserved__12GfMatrixDataIfLi4ELi4EEixEi(ptr noundef nonnull align 4 dereferenceable(64) %59, i32 noundef 1)
  %61 = getelementptr inbounds float, ptr %60, i64 3
  store float %58, ptr %61, align 4
  %62 = load ptr, ptr %4, align 8
  %63 = getelementptr inbounds [4 x float], ptr %62, i64 2
  %64 = getelementptr inbounds [4 x float], ptr %63, i64 0, i64 0
  %65 = load float, ptr %64, align 4
  %66 = getelementptr inbounds nuw %"class.pxrInternal_v0_24__pxrReserved__::GfMatrix4f", ptr %5, i32 0, i32 0
  %67 = call noundef ptr @_ZN32pxrInternal_v0_24__pxrReserved__12GfMatrixDataIfLi4ELi4EEixEi(ptr noundef nonnull align 4 dereferenceable(64) %66, i32 noundef 2)
  %68 = getelementptr inbounds float, ptr %67, i64 0
  store float %65, ptr %68, align 4
  %69 = load ptr, ptr %4, align 8
  %70 = getelementptr inbounds [4 x float], ptr %69, i64 2
  %71 = getelementptr inbounds [4 x float], ptr %70, i64 0, i64 1
  %72 = load float, ptr %71, align 4
  %73 = getelementptr inbounds nuw %"class.pxrInternal_v0_24__pxrReserved__::GfMatrix4f", ptr %5, i32 0, i32 0
  %74 = call noundef ptr @_ZN32pxrInternal_v0_24__pxrReserved__12GfMatrixDataIfLi4ELi4EEixEi(ptr noundef nonnull align 4 dereferenceable(64) %73, i32 noundef 2)
  %75 = getelementptr inbounds float, ptr %74, i64 1
  store float %72, ptr %75, align 4
  %76 = load ptr, ptr %4, align 8
  %77 = getelementptr inbounds [4 x float], ptr %76, i64 2
  %78 = getelementptr inbounds [4 x float], ptr %77, i64 0, i64 2
  %79 = load float, ptr %78, align 4
  %80 = getelementptr inbounds nuw %"class.pxrInternal_v0_24__pxrReserved__::GfMatrix4f", ptr %5, i32 0, i32 0
  %81 = call noundef ptr @_ZN32pxrInternal_v0_24__pxrReserved__12GfMatrixDataIfLi4ELi4EEixEi(ptr noundef nonnull align 4 dereferenceable(64) %80, i32 noundef 2)
  %82 = getelementptr inbounds float, ptr %81, i64 2
  store float %79, ptr %82, align 4
  %83 = load ptr, ptr %4, align 8
  %84 = getelementptr inbounds [4 x float], ptr %83, i64 2
  %85 = getelementptr inbounds [4 x float], ptr %84, i64 0, i64 3
  %86 = load float, ptr %85, align 4
  %87 = getelementptr inbounds nuw %"class.pxrInternal_v0_24__pxrReserved__::GfMatrix4f", ptr %5, i32 0, i32 0
  %88 = call noundef ptr @_ZN32pxrInternal_v0_24__pxrReserved__12GfMatrixDataIfLi4ELi4EEixEi(ptr noundef nonnull align 4 dereferenceable(64) %87, i32 noundef 2)
  %89 = getelementptr inbounds float, ptr %88, i64 3
  store float %86, ptr %89, align 4
  %90 = load ptr, ptr %4, align 8
  %91 = getelementptr inbounds [4 x float], ptr %90, i64 3
  %92 = getelementptr inbounds [4 x float], ptr %91, i64 0, i64 0
  %93 = load float, ptr %92, align 4
  %94 = getelementptr inbounds nuw %"class.pxrInternal_v0_24__pxrReserved__::GfMatrix4f", ptr %5, i32 0, i32 0
  %95 = call noundef ptr @_ZN32pxrInternal_v0_24__pxrReserved__12GfMatrixDataIfLi4ELi4EEixEi(ptr noundef nonnull align 4 dereferenceable(64) %94, i32 noundef 3)
  %96 = getelementptr inbounds float, ptr %95, i64 0
  store float %93, ptr %96, align 4
  %97 = load ptr, ptr %4, align 8
  %98 = getelementptr inbounds [4 x float], ptr %97, i64 3
  %99 = getelementptr inbounds [4 x float], ptr %98, i64 0, i64 1
  %100 = load float, ptr %99, align 4
  %101 = getelementptr inbounds nuw %"class.pxrInternal_v0_24__pxrReserved__::GfMatrix4f", ptr %5, i32 0, i32 0
  %102 = call noundef ptr @_ZN32pxrInternal_v0_24__pxrReserved__12GfMatrixDataIfLi4ELi4EEixEi(ptr noundef nonnull align 4 dereferenceable(64) %101, i32 noundef 3)
  %103 = getelementptr inbounds float, ptr %102, i64 1
  store float %100, ptr %103, align 4
  %104 = load ptr, ptr %4, align 8
  %105 = getelementptr inbounds [4 x float], ptr %104, i64 3
  %106 = getelementptr inbounds [4 x float], ptr %105, i64 0, i64 2
  %107 = load float, ptr %106, align 4
  %108 = getelementptr inbounds nuw %"class.pxrInternal_v0_24__pxrReserved__::GfMatrix4f", ptr %5, i32 0, i32 0
  %109 = call noundef ptr @_ZN32pxrInternal_v0_24__pxrReserved__12GfMatrixDataIfLi4ELi4EEixEi(ptr noundef nonnull align 4 dereferenceable(64) %108, i32 noundef 3)
  %110 = getelementptr inbounds float, ptr %109, i64 2
  store float %107, ptr %110, align 4
  %111 = load ptr, ptr %4, align 8
  %112 = getelementptr inbounds [4 x float], ptr %111, i64 3
  %113 = getelementptr inbounds [4 x float], ptr %112, i64 0, i64 3
  %114 = load float, ptr %113, align 4
  %115 = getelementptr inbounds nuw %"class.pxrInternal_v0_24__pxrReserved__::GfMatrix4f", ptr %5, i32 0, i32 0
  %116 = call noundef ptr @_ZN32pxrInternal_v0_24__pxrReserved__12GfMatrixDataIfLi4ELi4EEixEi(ptr noundef nonnull align 4 dereferenceable(64) %115, i32 noundef 3)
  %117 = getelementptr inbounds float, ptr %116, i64 3
  store float %114, ptr %117, align 4
  ret ptr %5
}

; Function Attrs: mustprogress nounwind uwtable
define linkonce_odr noundef nonnull align 4 dereferenceable(4) ptr @_ZNKSt6vectorIfSaIfEEixEm(ptr noundef nonnull align 8 dereferenceable(24) %0, i64 noundef %1) #2 comdat align 2 {
  %3 = alloca ptr, align 8
  %4 = alloca i64, align 8
  store ptr %0, ptr %3, align 8
  store i64 %1, ptr %4, align 8
  %5 = load ptr, ptr %3, align 8
  %6 = getelementptr inbounds nuw %"struct.std::_Vector_base.12", ptr %5, i32 0, i32 0
  %7 = getelementptr inbounds nuw %"struct.std::_Vector_base<float, std::allocator<float>>::_Vector_impl_data", ptr %6, i32 0, i32 0
  %8 = load ptr, ptr %7, align 8
  %9 = load i64, ptr %4, align 8
  %10 = getelementptr inbounds float, ptr %8, i64 %9
  ret ptr %10
}

; Function Attrs: mustprogress nounwind uwtable
define linkonce_odr noundef i64 @_ZNKSt6vectorIfSaIfEE4sizeEv(ptr noundef nonnull align 8 dereferenceable(24) %0) #2 comdat align 2 {
  %2 = alloca ptr, align 8
  store ptr %0, ptr %2, align 8
  %3 = load ptr, ptr %2, align 8
  %4 = getelementptr inbounds nuw %"struct.std::_Vector_base.12", ptr %3, i32 0, i32 0
  %5 = getelementptr inbounds nuw %"struct.std::_Vector_base<float, std::allocator<float>>::_Vector_impl_data", ptr %4, i32 0, i32 1
  %6 = load ptr, ptr %5, align 8
  %7 = getelementptr inbounds nuw %"struct.std::_Vector_base.12", ptr %3, i32 0, i32 0
  %8 = getelementptr inbounds nuw %"struct.std::_Vector_base<float, std::allocator<float>>::_Vector_impl_data", ptr %7, i32 0, i32 0
  %9 = load ptr, ptr %8, align 8
  %10 = ptrtoint ptr %6 to i64
  %11 = ptrtoint ptr %9 to i64
  %12 = sub i64 %10, %11
  %13 = sdiv exact i64 %12, 4
  ret i64 %13
}

; Function Attrs: mustprogress uwtable
define void @_ZN32pxrInternal_v0_24__pxrReserved__10GfMatrix4fC2ERKSt6vectorIfSaIfEES5_S5_S5_(ptr noundef nonnull align 4 dereferenceable(64) %0, ptr noundef nonnull align 8 dereferenceable(24) %1, ptr noundef nonnull align 8 dereferenceable(24) %2, ptr noundef nonnull align 8 dereferenceable(24) %3, ptr noundef nonnull align 8 dereferenceable(24) %4) unnamed_addr #0 align 2 {
  %6 = alloca ptr, align 8
  %7 = alloca ptr, align 8
  %8 = alloca ptr, align 8
  %9 = alloca ptr, align 8
  %10 = alloca ptr, align 8
  %11 = alloca [4 x [4 x float]], align 16
  %12 = alloca i64, align 8
  %13 = alloca i64, align 8
  %14 = alloca i64, align 8
  %15 = alloca i64, align 8
  store ptr %0, ptr %6, align 8
  store ptr %1, ptr %7, align 8
  store ptr %2, ptr %8, align 8
  store ptr %3, ptr %9, align 8
  store ptr %4, ptr %10, align 8
  %16 = load ptr, ptr %6, align 8
  call void @llvm.memset.p0.i64(ptr align 16 %11, i8 0, i64 64, i1 false)
  %17 = getelementptr inbounds [4 x [4 x float]], ptr %11, i32 0, i32 0
  %18 = getelementptr inbounds [4 x float], ptr %17, i32 0, i32 0
  store float 1.000000e+00, ptr %18, align 16
  %19 = getelementptr inbounds [4 x [4 x float]], ptr %11, i32 0, i32 1
  %20 = getelementptr inbounds [4 x float], ptr %19, i32 0, i32 1
  store float 1.000000e+00, ptr %20, align 4
  %21 = getelementptr inbounds [4 x [4 x float]], ptr %11, i32 0, i32 2
  %22 = getelementptr inbounds [4 x float], ptr %21, i32 0, i32 2
  store float 1.000000e+00, ptr %22, align 8
  %23 = getelementptr inbounds [4 x [4 x float]], ptr %11, i32 0, i32 3
  %24 = getelementptr inbounds [4 x float], ptr %23, i32 0, i32 3
  store float 1.000000e+00, ptr %24, align 4
  store i64 0, ptr %12, align 8
  br label %25

25:                                               ; preds = %43, %5
  %26 = load i64, ptr %12, align 8
  %27 = icmp ult i64 %26, 4
  br i1 %27, label %28, label %33

28:                                               ; preds = %25
  %29 = load i64, ptr %12, align 8
  %30 = load ptr, ptr %7, align 8
  %31 = call noundef i64 @_ZNKSt6vectorIfSaIfEE4sizeEv(ptr noundef nonnull align 8 dereferenceable(24) %30) #9
  %32 = icmp ult i64 %29, %31
  br label %33

33:                                               ; preds = %28, %25
  %34 = phi i1 [ false, %25 ], [ %32, %28 ]
  br i1 %34, label %35, label %46

35:                                               ; preds = %33
  %36 = load ptr, ptr %7, align 8
  %37 = load i64, ptr %12, align 8
  %38 = call noundef nonnull align 4 dereferenceable(4) ptr @_ZNKSt6vectorIfSaIfEEixEm(ptr noundef nonnull align 8 dereferenceable(24) %36, i64 noundef %37) #9
  %39 = load float, ptr %38, align 4
  %40 = getelementptr inbounds [4 x [4 x float]], ptr %11, i64 0, i64 0
  %41 = load i64, ptr %12, align 8
  %42 = getelementptr inbounds [4 x float], ptr %40, i64 0, i64 %41
  store float %39, ptr %42, align 4
  br label %43

43:                                               ; preds = %35
  %44 = load i64, ptr %12, align 8
  %45 = add i64 %44, 1
  store i64 %45, ptr %12, align 8
  br label %25, !llvm.loop !13

46:                                               ; preds = %33
  store i64 0, ptr %13, align 8
  br label %47

47:                                               ; preds = %65, %46
  %48 = load i64, ptr %13, align 8
  %49 = icmp ult i64 %48, 4
  br i1 %49, label %50, label %55

50:                                               ; preds = %47
  %51 = load i64, ptr %13, align 8
  %52 = load ptr, ptr %8, align 8
  %53 = call noundef i64 @_ZNKSt6vectorIfSaIfEE4sizeEv(ptr noundef nonnull align 8 dereferenceable(24) %52) #9
  %54 = icmp ult i64 %51, %53
  br label %55

55:                                               ; preds = %50, %47
  %56 = phi i1 [ false, %47 ], [ %54, %50 ]
  br i1 %56, label %57, label %68

57:                                               ; preds = %55
  %58 = load ptr, ptr %8, align 8
  %59 = load i64, ptr %13, align 8
  %60 = call noundef nonnull align 4 dereferenceable(4) ptr @_ZNKSt6vectorIfSaIfEEixEm(ptr noundef nonnull align 8 dereferenceable(24) %58, i64 noundef %59) #9
  %61 = load float, ptr %60, align 4
  %62 = getelementptr inbounds [4 x [4 x float]], ptr %11, i64 0, i64 1
  %63 = load i64, ptr %13, align 8
  %64 = getelementptr inbounds [4 x float], ptr %62, i64 0, i64 %63
  store float %61, ptr %64, align 4
  br label %65

65:                                               ; preds = %57
  %66 = load i64, ptr %13, align 8
  %67 = add i64 %66, 1
  store i64 %67, ptr %13, align 8
  br label %47, !llvm.loop !14

68:                                               ; preds = %55
  store i64 0, ptr %14, align 8
  br label %69

69:                                               ; preds = %87, %68
  %70 = load i64, ptr %14, align 8
  %71 = icmp ult i64 %70, 4
  br i1 %71, label %72, label %77

72:                                               ; preds = %69
  %73 = load i64, ptr %14, align 8
  %74 = load ptr, ptr %9, align 8
  %75 = call noundef i64 @_ZNKSt6vectorIfSaIfEE4sizeEv(ptr noundef nonnull align 8 dereferenceable(24) %74) #9
  %76 = icmp ult i64 %73, %75
  br label %77

77:                                               ; preds = %72, %69
  %78 = phi i1 [ false, %69 ], [ %76, %72 ]
  br i1 %78, label %79, label %90

79:                                               ; preds = %77
  %80 = load ptr, ptr %9, align 8
  %81 = load i64, ptr %14, align 8
  %82 = call noundef nonnull align 4 dereferenceable(4) ptr @_ZNKSt6vectorIfSaIfEEixEm(ptr noundef nonnull align 8 dereferenceable(24) %80, i64 noundef %81) #9
  %83 = load float, ptr %82, align 4
  %84 = getelementptr inbounds [4 x [4 x float]], ptr %11, i64 0, i64 2
  %85 = load i64, ptr %14, align 8
  %86 = getelementptr inbounds [4 x float], ptr %84, i64 0, i64 %85
  store float %83, ptr %86, align 4
  br label %87

87:                                               ; preds = %79
  %88 = load i64, ptr %14, align 8
  %89 = add i64 %88, 1
  store i64 %89, ptr %14, align 8
  br label %69, !llvm.loop !15

90:                                               ; preds = %77
  store i64 0, ptr %15, align 8
  br label %91

91:                                               ; preds = %109, %90
  %92 = load i64, ptr %15, align 8
  %93 = icmp ult i64 %92, 4
  br i1 %93, label %94, label %99

94:                                               ; preds = %91
  %95 = load i64, ptr %15, align 8
  %96 = load ptr, ptr %10, align 8
  %97 = call noundef i64 @_ZNKSt6vectorIfSaIfEE4sizeEv(ptr noundef nonnull align 8 dereferenceable(24) %96) #9
  %98 = icmp ult i64 %95, %97
  br label %99

99:                                               ; preds = %94, %91
  %100 = phi i1 [ false, %91 ], [ %98, %94 ]
  br i1 %100, label %101, label %112

101:                                              ; preds = %99
  %102 = load ptr, ptr %10, align 8
  %103 = load i64, ptr %15, align 8
  %104 = call noundef nonnull align 4 dereferenceable(4) ptr @_ZNKSt6vectorIfSaIfEEixEm(ptr noundef nonnull align 8 dereferenceable(24) %102, i64 noundef %103) #9
  %105 = load float, ptr %104, align 4
  %106 = getelementptr inbounds [4 x [4 x float]], ptr %11, i64 0, i64 3
  %107 = load i64, ptr %15, align 8
  %108 = getelementptr inbounds [4 x float], ptr %106, i64 0, i64 %107
  store float %105, ptr %108, align 4
  br label %109

109:                                              ; preds = %101
  %110 = load i64, ptr %15, align 8
  %111 = add i64 %110, 1
  store i64 %111, ptr %15, align 8
  br label %91, !llvm.loop !16

112:                                              ; preds = %99
  %113 = getelementptr inbounds [4 x [4 x float]], ptr %11, i64 0, i64 0
  %114 = call noundef nonnull align 4 dereferenceable(64) ptr @_ZN32pxrInternal_v0_24__pxrReserved__10GfMatrix4f3SetEPA4_Kf(ptr noundef nonnull align 4 dereferenceable(64) %16, ptr noundef %113)
  ret void
}