; Function Attrs: mustprogress nofree norecurse nosync nounwind memory(read, argmem: readwrite, inaccessiblemem: none) uwtable
define void @_ZN32pxrInternal_v0_24__pxrReserved__10GfMatrix4fC2ERKSt6vectorIfSaIfEES5_S5_S5_(ptr noundef nonnull writeonly align 4 captures(none) dereferenceable(64) %0, ptr noundef nonnull readonly align 8 captures(none) dereferenceable(24) %1, ptr noundef nonnull readonly align 8 captures(none) dereferenceable(24) %2, ptr noundef nonnull readonly align 8 captures(none) dereferenceable(24) %3, ptr noundef nonnull readonly align 8 captures(none) dereferenceable(24) %4) unnamed_addr #3 align 2 {
  %6 = alloca [4 x [4 x float]], align 16
  call void @llvm.memset.p0.i64(ptr noundef nonnull align 16 dereferenceable(64) %6, i8 0, i64 64, i1 false)
  store float 1.000000e+00, ptr %6, align 16
  %7 = getelementptr inbounds nuw i8, ptr %6, i64 16
  %8 = getelementptr inbounds nuw i8, ptr %6, i64 20
  store float 1.000000e+00, ptr %8, align 4
  %9 = getelementptr inbounds nuw i8, ptr %6, i64 32
  %10 = getelementptr inbounds nuw i8, ptr %6, i64 40
  store float 1.000000e+00, ptr %10, align 8
  %11 = getelementptr inbounds nuw i8, ptr %6, i64 48
  %12 = getelementptr inbounds nuw i8, ptr %6, i64 60
  store float 1.000000e+00, ptr %12, align 4
  %13 = getelementptr inbounds nuw i8, ptr %1, i64 8
  %14 = load ptr, ptr %13, align 8
  %15 = load ptr, ptr %1, align 8
  %16 = ptrtoint ptr %14 to i64
  %17 = ptrtoint ptr %15 to i64
  %18 = sub i64 %16, %17
  %19 = ashr exact i64 %18, 2
  br label %20

20:                                               ; preds = %5, %21
  %.03637 = phi i64 [ 0, %5 ], [ %25, %21 ]
  %exitcond.not = icmp eq i64 %.03637, %19
  br i1 %exitcond.not, label %.critedge, label %21

21:                                               ; preds = %20
  %22 = getelementptr inbounds nuw float, ptr %15, i64 %.03637
  %23 = load float, ptr %22, align 4
  %24 = getelementptr inbounds nuw [4 x float], ptr %6, i64 0, i64 %.03637
  store float %23, ptr %24, align 4
  %25 = add nuw nsw i64 %.03637, 1
  %exitcond41.not = icmp eq i64 %25, 4
  br i1 %exitcond41.not, label %.critedge, label %20, !llvm.loop !13

.critedge:                                        ; preds = %21, %20
  %26 = getelementptr inbounds nuw i8, ptr %2, i64 8
  %27 = load ptr, ptr %26, align 8
  %28 = load ptr, ptr %2, align 8
  %29 = ptrtoint ptr %27 to i64
  %30 = ptrtoint ptr %28 to i64
  %31 = sub i64 %29, %30
  %32 = ashr exact i64 %31, 2
  br label %33

33:                                               ; preds = %.critedge, %34
  %.03538 = phi i64 [ 0, %.critedge ], [ %38, %34 ]
  %exitcond42.not = icmp eq i64 %.03538, %32
  br i1 %exitcond42.not, label %.critedge2, label %34

34:                                               ; preds = %33
  %35 = getelementptr inbounds nuw float, ptr %28, i64 %.03538
  %36 = load float, ptr %35, align 4
  %37 = getelementptr inbounds nuw [4 x float], ptr %7, i64 0, i64 %.03538
  store float %36, ptr %37, align 4
  %38 = add nuw nsw i64 %.03538, 1
  %exitcond43.not = icmp eq i64 %38, 4
  br i1 %exitcond43.not, label %.critedge2, label %33, !llvm.loop !14

.critedge2:                                       ; preds = %34, %33
  %39 = getelementptr inbounds nuw i8, ptr %3, i64 8
  %40 = load ptr, ptr %39, align 8
  %41 = load ptr, ptr %3, align 8
  %42 = ptrtoint ptr %40 to i64
  %43 = ptrtoint ptr %41 to i64
  %44 = sub i64 %42, %43
  %45 = ashr exact i64 %44, 2
  br label %46

46:                                               ; preds = %.critedge2, %47
  %.03439 = phi i64 [ 0, %.critedge2 ], [ %51, %47 ]
  %exitcond44.not = icmp eq i64 %.03439, %45
  br i1 %exitcond44.not, label %.critedge4, label %47

47:                                               ; preds = %46
  %48 = getelementptr inbounds nuw float, ptr %41, i64 %.03439
  %49 = load float, ptr %48, align 4
  %50 = getelementptr inbounds nuw [4 x float], ptr %9, i64 0, i64 %.03439
  store float %49, ptr %50, align 4
  %51 = add nuw nsw i64 %.03439, 1
  %exitcond45.not = icmp eq i64 %51, 4
  br i1 %exitcond45.not, label %.critedge4, label %46, !llvm.loop !15

.critedge4:                                       ; preds = %47, %46
  %52 = getelementptr inbounds nuw i8, ptr %4, i64 8
  %53 = load ptr, ptr %52, align 8
  %54 = load ptr, ptr %4, align 8
  %55 = ptrtoint ptr %53 to i64
  %56 = ptrtoint ptr %54 to i64
  %57 = sub i64 %55, %56
  %58 = ashr exact i64 %57, 2
  br label %59

59:                                               ; preds = %.critedge4, %60
  %.040 = phi i64 [ 0, %.critedge4 ], [ %64, %60 ]
  %exitcond46.not = icmp eq i64 %.040, %58
  br i1 %exitcond46.not, label %.critedge6, label %60

60:                                               ; preds = %59
  %61 = getelementptr inbounds nuw float, ptr %54, i64 %.040
  %62 = load float, ptr %61, align 4
  %63 = getelementptr inbounds nuw [4 x float], ptr %11, i64 0, i64 %.040
  store float %62, ptr %63, align 4
  %64 = add nuw nsw i64 %.040, 1
  %exitcond47.not = icmp eq i64 %64, 4
  br i1 %exitcond47.not, label %.critedge6, label %59, !llvm.loop !16

.critedge6:                                       ; preds = %60, %59
  %65 = load float, ptr %6, align 16
  store float %65, ptr %0, align 4
  %66 = getelementptr inbounds nuw i8, ptr %6, i64 4
  %67 = load float, ptr %66, align 4
  %68 = getelementptr inbounds nuw i8, ptr %0, i64 4
  store float %67, ptr %68, align 4
  %69 = getelementptr inbounds nuw i8, ptr %6, i64 8
  %70 = load float, ptr %69, align 8
  %71 = getelementptr inbounds nuw i8, ptr %0, i64 8
  store float %70, ptr %71, align 4
  %72 = getelementptr inbounds nuw i8, ptr %6, i64 12
  %73 = load float, ptr %72, align 4
  %74 = getelementptr inbounds nuw i8, ptr %0, i64 12
  store float %73, ptr %74, align 4
  %75 = load float, ptr %7, align 16
  %76 = getelementptr inbounds nuw i8, ptr %0, i64 16
  store float %75, ptr %76, align 4
  %77 = load float, ptr %8, align 4
  %78 = getelementptr inbounds nuw i8, ptr %0, i64 20
  store float %77, ptr %78, align 4
  %79 = getelementptr inbounds nuw i8, ptr %6, i64 24
  %80 = load float, ptr %79, align 8
  %81 = getelementptr inbounds nuw i8, ptr %0, i64 24
  store float %80, ptr %81, align 4
  %82 = getelementptr inbounds nuw i8, ptr %6, i64 28
  %83 = load float, ptr %82, align 4
  %84 = getelementptr inbounds nuw i8, ptr %0, i64 28
  store float %83, ptr %84, align 4
  %85 = load float, ptr %9, align 16
  %86 = getelementptr inbounds nuw i8, ptr %0, i64 32
  store float %85, ptr %86, align 4
  %87 = getelementptr inbounds nuw i8, ptr %6, i64 36
  %88 = load float, ptr %87, align 4
  %89 = getelementptr inbounds nuw i8, ptr %0, i64 36
  store float %88, ptr %89, align 4
  %90 = load float, ptr %10, align 8
  %91 = getelementptr inbounds nuw i8, ptr %0, i64 40
  store float %90, ptr %91, align 4
  %92 = getelementptr inbounds nuw i8, ptr %6, i64 44
  %93 = load float, ptr %92, align 4
  %94 = getelementptr inbounds nuw i8, ptr %0, i64 44
  store float %93, ptr %94, align 4
  %95 = load float, ptr %11, align 16
  %96 = getelementptr inbounds nuw i8, ptr %0, i64 48
  store float %95, ptr %96, align 4
  %97 = getelementptr inbounds nuw i8, ptr %6, i64 52
  %98 = load float, ptr %97, align 4
  %99 = getelementptr inbounds nuw i8, ptr %0, i64 52
  store float %98, ptr %99, align 4
  %100 = getelementptr inbounds nuw i8, ptr %6, i64 56
  %101 = load float, ptr %100, align 8
  %102 = getelementptr inbounds nuw i8, ptr %0, i64 56
  store float %101, ptr %102, align 4
  %103 = load float, ptr %12, align 4
  %104 = getelementptr inbounds nuw i8, ptr %0, i64 60
  store float %103, ptr %104, align 4
  ret void
}